; Function Attrs: nounwind uwtable
define hidden void @je_tcache_cleanup(ptr noundef %0) local_unnamed_addr #0 {
  %2 = load i8, ptr %0, align 1, !tbaa !20, !range !22, !noundef !23
  %3 = trunc nuw i8 %2 to i1
  br i1 %3, label %4, label %7

4:                                                ; preds = %1
  %5 = getelementptr inbounds nuw i8, ptr %0, i64 928
  tail call fastcc void @tcache_destroy(ptr noundef nonnull %0, ptr noundef nonnull %5, i1 noundef zeroext true)
  %6 = getelementptr inbounds nuw i8, ptr %0, i64 936
  tail call void @llvm.memset.p0.i64(ptr noundef nonnull align 8 dereferenceable(1752) %6, i8 0, i64 1752, i1 false)
  br label %7

7:                                                ; preds = %1, %4
  ret void
}